; Function Attrs: nounwind uwtable
define dso_local i32 @callReplyType(ptr noundef %0) local_unnamed_addr #0 {
  %2 = alloca %struct.ReplyParser, align 8
  %.not = icmp eq ptr %0, null
  br i1 %.not, label %16, label %3

3:                                                ; preds = %1
  %4 = getelementptr inbounds nuw i8, ptr %0, i64 36
  %5 = load i32, ptr %4, align 4, !tbaa !5
  %6 = and i32 %5, 2
  %.not.i = icmp eq i32 %6, 0
  br i1 %.not.i, label %7, label %callReplyParse.exit

7:                                                ; preds = %3
  call void @llvm.lifetime.start.p0(i64 136, ptr nonnull %2) #8
  %8 = getelementptr inbounds nuw i8, ptr %0, i64 16
  %9 = load ptr, ptr %8, align 8, !tbaa !25
  store ptr %9, ptr %2, align 8, !tbaa !26
  %10 = getelementptr inbounds nuw i8, ptr %2, i64 8
  call void @llvm.memcpy.p0.p0.i64(ptr noundef nonnull align 8 dereferenceable(128) %10, ptr noundef nonnull align 8 dereferenceable(128) @DefaultParserCallbacks, i64 128, i1 false), !tbaa.struct !29
  %11 = call i32 @parseReply(ptr noundef nonnull %2, ptr noundef nonnull %0) #8
  %12 = load i32, ptr %4, align 4, !tbaa !5
  %13 = or i32 %12, 2
  store i32 %13, ptr %4, align 4, !tbaa !5
  call void @llvm.lifetime.end.p0(i64 136, ptr nonnull %2) #8
  br label %callReplyParse.exit

callReplyParse.exit:                              ; preds = %3, %7
  %14 = getelementptr inbounds nuw i8, ptr %0, i64 32
  %15 = load i32, ptr %14, align 8, !tbaa !15
  br label %16

16:                                               ; preds = %1, %callReplyParse.exit
  %.0 = phi i32 [ %15, %callReplyParse.exit ], [ -1, %1 ]
  ret i32 %.0
}